target datalayout = "e-m:e-p270:32:32-p271:32:32-p272:64:64-i64:64-i128:128-f80:128-n8:16:32:64-S128"
target triple = "x86_64-pc-linux-gnu"

%struct.Qureg = type { i32, i32, i32, i64, i64, i32, i32, %struct.ComplexArray, %struct.ComplexArray, %struct.ComplexArray, ptr, ptr, ptr, ptr, ptr, ptr }
%struct.ComplexArray = type { ptr, ptr }
%struct.ComplexMatrixN = type { i32, ptr, ptr }

@__func__.applyMultiControlledGateMatrixN = private unnamed_addr constant [32 x i8] c"applyMultiControlledGateMatrixN\00", align 1
@.str.27 = private unnamed_addr constant [116 x i8] c"Here, an undisclosed %d-controlled %d-by-%d gate matrix (possibly non-unitary) was applied to %d undisclosed qubits\00", align 1

; Function Attrs: nounwind uwtable
define void @applyMultiControlledGateMatrixN(ptr noundef byval(%struct.Qureg) align 8 %0, ptr noundef %1, i32 noundef %2, ptr noundef %3, i32 noundef %4, ptr noundef byval(%struct.ComplexMatrixN) align 8 %5) #0 {
  %7 = alloca ptr, align 8
  %8 = alloca i32, align 4
  %9 = alloca ptr, align 8
  %10 = alloca i32, align 4
  %11 = alloca i64, align 8
  %12 = alloca i32, align 4
  %13 = alloca i32, align 4
  store ptr %1, ptr %7, align 8, !tbaa !27
  store i32 %2, ptr %8, align 4, !tbaa !4
  store ptr %3, ptr %9, align 8, !tbaa !27
  store i32 %4, ptr %10, align 4, !tbaa !4
  %14 = load ptr, ptr %7, align 8, !tbaa !27
  %15 = load i32, ptr %8, align 4, !tbaa !4
  %16 = load ptr, ptr %9, align 8, !tbaa !27
  %17 = load i32, ptr %10, align 4, !tbaa !4
  call void @validateMultiControlsMultiTargets(ptr noundef byval(%struct.Qureg) align 8 %0, ptr noundef %14, i32 noundef %15, ptr noundef %16, i32 noundef %17, ptr noundef @__func__.applyMultiControlledGateMatrixN)
  %18 = load i32, ptr %10, align 4, !tbaa !4
  call void @validateMultiQubitMatrix(ptr noundef byval(%struct.Qureg) align 8 %0, ptr noundef byval(%struct.ComplexMatrixN) align 8 %5, i32 noundef %18, ptr noundef @__func__.applyMultiControlledGateMatrixN)
  call void @llvm.lifetime.start.p0(i64 8, ptr %11) #7
  %19 = load ptr, ptr %7, align 8, !tbaa !27
  %20 = load i32, ptr %8, align 4, !tbaa !4
  %21 = call i64 @getQubitBitMask(ptr noundef %19, i32 noundef %20)
  store i64 %21, ptr %11, align 8, !tbaa !22
  %22 = load i64, ptr %11, align 8, !tbaa !22
  %23 = load ptr, ptr %9, align 8, !tbaa !27
  %24 = load i32, ptr %10, align 4, !tbaa !4
  call void @statevec_multiControlledMultiQubitUnitary(ptr noundef byval(%struct.Qureg) align 8 %0, i64 noundef %22, ptr noundef %23, i32 noundef %24, ptr noundef byval(%struct.ComplexMatrixN) align 8 %5)
  %25 = getelementptr inbounds nuw %struct.Qureg, ptr %0, i32 0, i32 0
  %26 = load i32, ptr %25, align 8, !tbaa !13
  %27 = icmp ne i32 %26, 0
  br i1 %27, label %28, label %44

28:                                               ; preds = %6
  call void @llvm.lifetime.start.p0(i64 4, ptr %12) #7
  %29 = getelementptr inbounds nuw %struct.Qureg, ptr %0, i32 0, i32 1
  %30 = load i32, ptr %29, align 4, !tbaa !18
  store i32 %30, ptr %12, align 4, !tbaa !4
  %31 = load ptr, ptr %9, align 8, !tbaa !27
  %32 = load i32, ptr %10, align 4, !tbaa !4
  %33 = load i32, ptr %12, align 4, !tbaa !4
  call void @shiftIndices(ptr noundef %31, i32 noundef %32, i32 noundef %33)
  call void @setConjugateMatrixN(ptr noundef byval(%struct.ComplexMatrixN) align 8 %5)
  %34 = load i64, ptr %11, align 8, !tbaa !22
  %35 = load i32, ptr %12, align 4, !tbaa !4
  %36 = zext i32 %35 to i64
  %37 = shl i64 %34, %36
  %38 = load ptr, ptr %9, align 8, !tbaa !27
  %39 = load i32, ptr %10, align 4, !tbaa !4
  call void @statevec_multiControlledMultiQubitUnitary(ptr noundef byval(%struct.Qureg) align 8 %0, i64 noundef %37, ptr noundef %38, i32 noundef %39, ptr noundef byval(%struct.ComplexMatrixN) align 8 %5)
  %40 = load ptr, ptr %9, align 8, !tbaa !27
  %41 = load i32, ptr %10, align 4, !tbaa !4
  %42 = load i32, ptr %12, align 4, !tbaa !4
  %43 = sub nsw i32 0, %42
  call void @shiftIndices(ptr noundef %40, i32 noundef %41, i32 noundef %43)
  call void @setConjugateMatrixN(ptr noundef byval(%struct.ComplexMatrixN) align 8 %5)
  call void @llvm.lifetime.end.p0(i64 4, ptr %12) #7
  br label %44

44:                                               ; preds = %28, %6
  call void @llvm.lifetime.start.p0(i64 4, ptr %13) #7
  %45 = load i32, ptr %10, align 4, !tbaa !4
  %46 = shl i32 1, %45
  store i32 %46, ptr %13, align 4, !tbaa !4
  %47 = load i32, ptr %8, align 4, !tbaa !4
  %48 = load i32, ptr %13, align 4, !tbaa !4
  %49 = load i32, ptr %13, align 4, !tbaa !4
  %50 = load i32, ptr %10, align 4, !tbaa !4
  call void (ptr, ptr, ...) @qasm_recordComment(ptr noundef byval(%struct.Qureg) align 8 %0, ptr noundef @.str.27, i32 noundef %47, i32 noundef %48, i32 noundef %49, i32 noundef %50)
  call void @llvm.lifetime.end.p0(i64 4, ptr %13) #7
  call void @llvm.lifetime.end.p0(i64 8, ptr %11) #7
  ret void
}