; Function Attrs: nounwind uwtable
define void @applyMultiControlledGateMatrixN(ptr noundef readonly byval(%struct.Qureg) align 8 captures(none) %0, ptr noundef %1, i32 noundef %2, ptr noundef %3, i32 noundef %4, ptr noundef readonly byval(%struct.ComplexMatrixN) align 8 captures(none) %5) local_unnamed_addr #0 {
  tail call void @validateMultiControlsMultiTargets(ptr noundef nonnull byval(%struct.Qureg) align 8 %0, ptr noundef %1, i32 noundef %2, ptr noundef %3, i32 noundef %4, ptr noundef nonnull @__func__.applyMultiControlledGateMatrixN) #17
  tail call void @validateMultiQubitMatrix(ptr noundef nonnull byval(%struct.Qureg) align 8 %0, ptr noundef nonnull byval(%struct.ComplexMatrixN) align 8 %5, i32 noundef %4, ptr noundef nonnull @__func__.applyMultiControlledGateMatrixN) #17
  %7 = tail call i64 @getQubitBitMask(ptr noundef %1, i32 noundef %2) #17
  tail call void @statevec_multiControlledMultiQubitUnitary(ptr noundef nonnull byval(%struct.Qureg) align 8 %0, i64 noundef %7, ptr noundef %3, i32 noundef %4, ptr noundef nonnull byval(%struct.ComplexMatrixN) align 8 %5) #17
  %8 = load i32, ptr %0, align 8, !tbaa !12
  %.not = icmp eq i32 %8, 0
  br i1 %.not, label %15, label %9

9:                                                ; preds = %6
  %10 = getelementptr inbounds nuw i8, ptr %0, i64 4
  %11 = load i32, ptr %10, align 4, !tbaa !17
  tail call void @shiftIndices(ptr noundef %3, i32 noundef %4, i32 noundef %11) #17
  tail call void @setConjugateMatrixN(ptr noundef nonnull byval(%struct.ComplexMatrixN) align 8 %5) #17
  %12 = zext nneg i32 %11 to i64
  %13 = shl i64 %7, %12
  tail call void @statevec_multiControlledMultiQubitUnitary(ptr noundef nonnull byval(%struct.Qureg) align 8 %0, i64 noundef %13, ptr noundef %3, i32 noundef %4, ptr noundef nonnull byval(%struct.ComplexMatrixN) align 8 %5) #17
  %14 = sub nsw i32 0, %11
  tail call void @shiftIndices(ptr noundef %3, i32 noundef %4, i32 noundef %14) #17
  tail call void @setConjugateMatrixN(ptr noundef nonnull byval(%struct.ComplexMatrixN) align 8 %5) #17
  br label %15

15:                                               ; preds = %9, %6
  %16 = shl nuw i32 1, %4
  tail call void (ptr, ptr, ...) @qasm_recordComment(ptr noundef nonnull byval(%struct.Qureg) align 8 %0, ptr noundef nonnull @.str.27, i32 noundef %2, i32 noundef %16, i32 noundef %16, i32 noundef %4) #17
  ret void
}